target datalayout = "e-m:e-p270:32:32-p271:32:32-p272:64:64-i64:64-i128:128-f80:128-n8:16:32:64-S128"
target triple = "x86_64-pc-linux-gnu"

%"class.cv::bioinspired::RetinaFilter" = type <{ i8, i8, [2 x i8], i32, i32, [4 x i8], %"class.std::valarray", %"class.std::valarray", %"class.cv::bioinspired::BasicRetinaFilter", %"class.cv::bioinspired::ParvoRetinaFilter", %"class.cv::bioinspired::MagnoRetinaFilter", %"class.cv::bioinspired::RetinaColor", ptr, i8, i8, i8, i8, float, i8, [7 x i8] }>
%"class.std::valarray" = type { i64, ptr }
%"class.cv::bioinspired::BasicRetinaFilter" = type { %"class.cv::bioinspired::TemplateBuffer", %"class.std::valarray", i32, i32, %"class.std::valarray", %"class.std::valarray", %"class.std::valarray", float, float, float, float, float, float, float, float }
%"class.cv::bioinspired::TemplateBuffer" = type { ptr, %"class.std::valarray", i64, i64, i64, i64, i64 }
%"class.cv::bioinspired::ParvoRetinaFilter" = type { ptr, %"class.cv::bioinspired::BasicRetinaFilter", %"class.std::valarray", %"class.std::valarray", %"class.std::valarray", %"class.std::valarray", %"class.std::valarray", %"class.std::valarray", %"class.std::valarray", ptr, ptr }
%"class.cv::bioinspired::MagnoRetinaFilter" = type <{ ptr, %"class.cv::bioinspired::BasicRetinaFilter", %"class.std::valarray", %"class.std::valarray", %"class.std::valarray", %"class.std::valarray", %"class.std::valarray", %"class.std::valarray", %"class.std::valarray", %"class.std::valarray", ptr, ptr, float, [4 x i8] }>
%"class.cv::bioinspired::RetinaColor" = type <{ ptr, %"class.cv::bioinspired::BasicRetinaFilter", i32, i8, [3 x i8], float, [4 x i8], ptr, ptr, %"class.std::valarray.0", %"class.std::valarray", %"class.std::valarray", %"class.std::valarray", %"class.std::valarray", %"class.std::valarray", %"class.std::valarray", %"class.std::valarray", float, float, float, i8, [3 x i8] }>
%"class.std::valarray.0" = type { i64, ptr }
%"class.cv::bioinspired::ImageLogPolProjection" = type <{ ptr, %"class.cv::bioinspired::BasicRetinaFilter", i32, i32, i32, i32, i32, i32, i8, [7 x i8], double, double, double, double, double, %"class.std::valarray", ptr, %"class.std::valarray.0", ptr, i32, i8, [3 x i8] }>

; Function Attrs: inlinehint mustprogress nounwind uwtable
define linkonce_odr void @_ZSt15__valarray_fillIfEvPT_mRKS0_(ptr noalias noundef %0, i64 noundef %1, ptr noundef nonnull align 4 dereferenceable(4) %2) #6 comdat {
  %4 = alloca ptr, align 8
  %5 = alloca i64, align 8
  %6 = alloca ptr, align 8
  store ptr %0, ptr %4, align 8, !tbaa !47
  store i64 %1, ptr %5, align 8, !tbaa !39
  store ptr %2, ptr %6, align 8, !tbaa !47
  br label %7

7:                                                ; preds = %11, %3
  %8 = load i64, ptr %5, align 8, !tbaa !39
  %9 = add i64 %8, -1
  store i64 %9, ptr %5, align 8, !tbaa !39
  %10 = icmp ne i64 %8, 0
  br i1 %10, label %11, label %16

11:                                               ; preds = %7
  %12 = load ptr, ptr %6, align 8, !tbaa !47
  %13 = load float, ptr %12, align 4, !tbaa !48
  %14 = load ptr, ptr %4, align 8, !tbaa !47
  %15 = getelementptr inbounds nuw float, ptr %14, i32 1
  store ptr %15, ptr %4, align 8, !tbaa !47
  store float %13, ptr %14, align 4, !tbaa !48
  br label %7, !llvm.loop !83

16:                                               ; preds = %7
  ret void
}

; Function Attrs: inlinehint mustprogress nounwind uwtable
define linkonce_odr hidden noundef nonnull align 4 dereferenceable(4) ptr @_ZNSt8valarrayIfEixEm(ptr noundef nonnull align 8 dereferenceable(16) %0, i64 noundef %1) #6 comdat align 2 {
  %3 = alloca ptr, align 8
  %4 = alloca i64, align 8
  store ptr %0, ptr %3, align 8, !tbaa !38
  store i64 %1, ptr %4, align 8, !tbaa !39
  %5 = load ptr, ptr %3, align 8
  %6 = getelementptr inbounds nuw %"class.std::valarray", ptr %5, i32 0, i32 1
  %7 = load ptr, ptr %6, align 8, !tbaa !41
  %8 = load i64, ptr %4, align 8, !tbaa !39
  %9 = getelementptr inbounds nuw float, ptr %7, i64 %8
  ret ptr %9
}

; Function Attrs: inlinehint mustprogress uwtable
define linkonce_odr hidden noundef nonnull align 8 dereferenceable(16) ptr @_ZNSt8valarrayIfEaSERKf(ptr noundef nonnull align 8 dereferenceable(16) %0, ptr noundef nonnull align 4 dereferenceable(4) %1) #5 comdat align 2 {
  %3 = alloca ptr, align 8
  %4 = alloca ptr, align 8
  store ptr %0, ptr %3, align 8, !tbaa !38
  store ptr %1, ptr %4, align 8, !tbaa !47
  %5 = load ptr, ptr %3, align 8
  %6 = getelementptr inbounds nuw %"class.std::valarray", ptr %5, i32 0, i32 1
  %7 = load ptr, ptr %6, align 8, !tbaa !41
  %8 = getelementptr inbounds nuw %"class.std::valarray", ptr %5, i32 0, i32 0
  %9 = load i64, ptr %8, align 8, !tbaa !40
  %10 = load ptr, ptr %4, align 8, !tbaa !47
  call void @_ZSt15__valarray_fillIfEvPT_mRKS0_(ptr noundef %7, i64 noundef %9, ptr noundef nonnull align 4 dereferenceable(4) %10)
  ret ptr %5
}

; Function Attrs: inlinehint mustprogress uwtable
define linkonce_odr hidden noundef nonnull align 8 dereferenceable(64) ptr @_ZN2cv11bioinspired14TemplateBufferIfEaSERKf(ptr noundef nonnull align 8 dereferenceable(64) %0, ptr noundef nonnull align 4 dereferenceable(4) %1) #5 comdat align 2 {
  %3 = alloca ptr, align 8
  %4 = alloca ptr, align 8
  store ptr %0, ptr %3, align 8, !tbaa !82
  store ptr %1, ptr %4, align 8, !tbaa !47
  %5 = load ptr, ptr %3, align 8
  %6 = getelementptr inbounds i8, ptr %5, i64 8
  %7 = load ptr, ptr %4, align 8, !tbaa !47
  %8 = call noundef nonnull align 8 dereferenceable(16) ptr @_ZNSt8valarrayIfEaSERKf(ptr noundef nonnull align 8 dereferenceable(16) %6, ptr noundef nonnull align 4 dereferenceable(4) %7)
  ret ptr %5
}

; Function Attrs: inlinehint mustprogress nounwind uwtable
define linkonce_odr hidden noundef float @_ZN2cv11bioinspired17MagnoRetinaFilter19getTemporalConstantEv(ptr noundef nonnull align 8 dereferenceable(324) %0) #6 comdat align 2 {
  %2 = alloca ptr, align 8
  store ptr %0, ptr %2, align 8, !tbaa !65
  %3 = load ptr, ptr %2, align 8
  %4 = getelementptr inbounds i8, ptr %3, i64 8
  %5 = getelementptr inbounds nuw %"class.cv::bioinspired::BasicRetinaFilter", ptr %4, i32 0, i32 4
  %6 = call noundef nonnull align 4 dereferenceable(4) ptr @_ZNSt8valarrayIfEixEm(ptr noundef nonnull align 8 dereferenceable(16) %5, i64 noundef 2) #3
  %7 = load float, ptr %6, align 4, !tbaa !48
  ret float %7
}

; Function Attrs: inlinehint mustprogress nounwind uwtable
define linkonce_odr hidden noundef float @_ZN2cv11bioinspired17ParvoRetinaFilter25getHcellsTemporalConstantEv(ptr noundef nonnull align 8 dereferenceable(304) %0) #6 comdat align 2 {
  %2 = alloca ptr, align 8
  store ptr %0, ptr %2, align 8, !tbaa !63
  %3 = load ptr, ptr %2, align 8
  %4 = getelementptr inbounds i8, ptr %3, i64 8
  %5 = getelementptr inbounds nuw %"class.cv::bioinspired::BasicRetinaFilter", ptr %4, i32 0, i32 4
  %6 = call noundef nonnull align 4 dereferenceable(4) ptr @_ZNSt8valarrayIfEixEm(ptr noundef nonnull align 8 dereferenceable(16) %5, i64 noundef 5) #3
  %7 = load float, ptr %6, align 4, !tbaa !48
  ret float %7
}

; Function Attrs: inlinehint mustprogress nounwind uwtable
define linkonce_odr hidden noundef float @_ZN2cv11bioinspired17ParvoRetinaFilter33getPhotoreceptorsTemporalConstantEv(ptr noundef nonnull align 8 dereferenceable(304) %0) #6 comdat align 2 {
  %2 = alloca ptr, align 8
  store ptr %0, ptr %2, align 8, !tbaa !63
  %3 = load ptr, ptr %2, align 8
  %4 = getelementptr inbounds i8, ptr %3, i64 8
  %5 = getelementptr inbounds nuw %"class.cv::bioinspired::BasicRetinaFilter", ptr %4, i32 0, i32 4
  %6 = call noundef nonnull align 4 dereferenceable(4) ptr @_ZNSt8valarrayIfEixEm(ptr noundef nonnull align 8 dereferenceable(16) %5, i64 noundef 2) #3
  %7 = load float, ptr %6, align 4, !tbaa !48
  ret float %7
}

; Function Attrs: inlinehint mustprogress uwtable
define linkonce_odr hidden void @_ZN2cv11bioinspired17BasicRetinaFilter20clearSecondaryBufferEv(ptr noundef nonnull align 8 dereferenceable(168) %0) #5 comdat align 2 {
  %2 = alloca ptr, align 8
  %3 = alloca float, align 4
  store ptr %0, ptr %2, align 8, !tbaa !56
  %4 = load ptr, ptr %2, align 8
  call void @llvm.lifetime.start.p0(i64 4, ptr %3) #3
  store float 0.000000e+00, ptr %3, align 4, !tbaa !48
  %5 = getelementptr inbounds nuw %"class.cv::bioinspired::BasicRetinaFilter", ptr %4, i32 0, i32 1
  %6 = call noundef nonnull align 8 dereferenceable(16) ptr @_ZNSt8valarrayIfEaSERKf(ptr noundef nonnull align 8 dereferenceable(16) %5, ptr noundef nonnull align 4 dereferenceable(4) %3)
  call void @llvm.lifetime.end.p0(i64 4, ptr %3) #3
  ret void
}

; Function Attrs: inlinehint mustprogress uwtable
define linkonce_odr hidden void @_ZN2cv11bioinspired17BasicRetinaFilter17clearOutputBufferEv(ptr noundef nonnull align 8 dereferenceable(168) %0) #5 comdat align 2 {
  %2 = alloca ptr, align 8
  %3 = alloca float, align 4
  store ptr %0, ptr %2, align 8, !tbaa !56
  %4 = load ptr, ptr %2, align 8
  call void @llvm.lifetime.start.p0(i64 4, ptr %3) #3
  store float 0.000000e+00, ptr %3, align 4, !tbaa !48
  %5 = getelementptr inbounds nuw %"class.cv::bioinspired::BasicRetinaFilter", ptr %4, i32 0, i32 0
  %6 = call noundef nonnull align 8 dereferenceable(64) ptr @_ZN2cv11bioinspired14TemplateBufferIfEaSERKf(ptr noundef nonnull align 8 dereferenceable(64) %5, ptr noundef nonnull align 4 dereferenceable(4) %3)
  call void @llvm.lifetime.end.p0(i64 4, ptr %3) #3
  ret void
}

; Function Attrs: mustprogress uwtable
define hidden void @_ZN2cv11bioinspired12RetinaFilter19_setInitPeriodCountEv(ptr noundef nonnull align 8 dereferenceable(1217) %0) #4 align 2 {
  %2 = alloca ptr, align 8
  store ptr %0, ptr %2, align 8, !tbaa !3
  %3 = load ptr, ptr %2, align 8
  %4 = getelementptr inbounds nuw %"class.cv::bioinspired::RetinaFilter", ptr %3, i32 0, i32 9
  %5 = call noundef float @_ZN2cv11bioinspired17ParvoRetinaFilter33getPhotoreceptorsTemporalConstantEv(ptr noundef nonnull align 8 dereferenceable(304) %4)
  %6 = getelementptr inbounds nuw %"class.cv::bioinspired::RetinaFilter", ptr %3, i32 0, i32 9
  %7 = call noundef float @_ZN2cv11bioinspired17ParvoRetinaFilter25getHcellsTemporalConstantEv(ptr noundef nonnull align 8 dereferenceable(304) %6)
  %8 = fadd float %5, %7
  %9 = getelementptr inbounds nuw %"class.cv::bioinspired::RetinaFilter", ptr %3, i32 0, i32 10
  %10 = call noundef float @_ZN2cv11bioinspired17MagnoRetinaFilter19getTemporalConstantEv(ptr noundef nonnull align 8 dereferenceable(324) %9)
  %11 = fadd float %8, %10
  %12 = fptoui float %11 to i32
  %13 = getelementptr inbounds nuw %"class.cv::bioinspired::RetinaFilter", ptr %3, i32 0, i32 4
  store i32 %12, ptr %13, align 8, !tbaa !37
  %14 = getelementptr inbounds nuw %"class.cv::bioinspired::RetinaFilter", ptr %3, i32 0, i32 3
  store i32 0, ptr %14, align 4, !tbaa !55
  ret void
}

; Function Attrs: inlinehint mustprogress uwtable
define linkonce_odr hidden void @_ZN2cv11bioinspired17BasicRetinaFilter15clearAllBuffersEv(ptr noundef nonnull align 8 dereferenceable(168) %0) #5 comdat align 2 {
  %2 = alloca ptr, align 8
  store ptr %0, ptr %2, align 8, !tbaa !56
  %3 = load ptr, ptr %2, align 8
  call void @_ZN2cv11bioinspired17BasicRetinaFilter17clearOutputBufferEv(ptr noundef nonnull align 8 dereferenceable(168) %3)
  call void @_ZN2cv11bioinspired17BasicRetinaFilter20clearSecondaryBufferEv(ptr noundef nonnull align 8 dereferenceable(168) %3)
  ret void
}

; Function Attrs: mustprogress uwtable
define hidden void @_ZN2cv11bioinspired12RetinaFilter15clearAllBuffersEv(ptr noundef nonnull align 8 dereferenceable(1217) %0) #4 align 2 {
  %2 = alloca ptr, align 8
  store ptr %0, ptr %2, align 8, !tbaa !3
  %3 = load ptr, ptr %2, align 8
  %4 = getelementptr inbounds nuw %"class.cv::bioinspired::RetinaFilter", ptr %3, i32 0, i32 8
  call void @_ZN2cv11bioinspired17BasicRetinaFilter15clearAllBuffersEv(ptr noundef nonnull align 8 dereferenceable(168) %4)
  %5 = getelementptr inbounds nuw %"class.cv::bioinspired::RetinaFilter", ptr %3, i32 0, i32 9
  call void @_ZN2cv11bioinspired17ParvoRetinaFilter15clearAllBuffersEv(ptr noundef nonnull align 8 dereferenceable(304) %5)
  %6 = getelementptr inbounds nuw %"class.cv::bioinspired::RetinaFilter", ptr %3, i32 0, i32 10
  call void @_ZN2cv11bioinspired17MagnoRetinaFilter15clearAllBuffersEv(ptr noundef nonnull align 8 dereferenceable(324) %6)
  %7 = getelementptr inbounds nuw %"class.cv::bioinspired::RetinaFilter", ptr %3, i32 0, i32 11
  call void @_ZN2cv11bioinspired11RetinaColor15clearAllBuffersEv(ptr noundef nonnull align 8 dereferenceable(349) %7)
  %8 = getelementptr inbounds nuw %"class.cv::bioinspired::RetinaFilter", ptr %3, i32 0, i32 12
  %9 = load ptr, ptr %8, align 8, !tbaa !16
  %10 = icmp ne ptr %9, null
  br i1 %10, label %11, label %14

11:                                               ; preds = %1
  %12 = getelementptr inbounds nuw %"class.cv::bioinspired::RetinaFilter", ptr %3, i32 0, i32 12
  %13 = load ptr, ptr %12, align 8, !tbaa !16
  call void @_ZN2cv11bioinspired21ImageLogPolProjection15clearAllBuffersEv(ptr noundef nonnull align 8 dereferenceable(301) %13)
  br label %14

14:                                               ; preds = %11, %1
  call void @_ZN2cv11bioinspired12RetinaFilter19_setInitPeriodCountEv(ptr noundef nonnull align 8 dereferenceable(1217) %3)
  ret void
}

; Function Attrs: inlinehint mustprogress nounwind uwtable
define linkonce_odr hidden noundef i32 @_ZN2cv11bioinspired21ImageLogPolProjection18getOutputNBcolumnsEv(ptr noundef nonnull align 8 dereferenceable(301) %0) #6 comdat align 2 {
  %2 = alloca ptr, align 8
  store ptr %0, ptr %2, align 8, !tbaa !58
  %3 = load ptr, ptr %2, align 8
  %4 = getelementptr inbounds nuw %"class.cv::bioinspired::ImageLogPolProjection", ptr %3, i32 0, i32 4
  %5 = load i32, ptr %4, align 8, !tbaa !62
  ret i32 %5
}

; Function Attrs: inlinehint mustprogress nounwind uwtable
define linkonce_odr hidden noundef i32 @_ZN2cv11bioinspired21ImageLogPolProjection15getOutputNBrowsEv(ptr noundef nonnull align 8 dereferenceable(301) %0) #6 comdat align 2 {
  %2 = alloca ptr, align 8
  store ptr %0, ptr %2, align 8, !tbaa !58
  %3 = load ptr, ptr %2, align 8
  %4 = getelementptr inbounds nuw %"class.cv::bioinspired::ImageLogPolProjection", ptr %3, i32 0, i32 3
  %5 = load i32, ptr %4, align 4, !tbaa !59
  ret i32 %5
}

; Function Attrs: mustprogress uwtable
define hidden void @_ZN2cv11bioinspired12RetinaFilter6resizeEjj(ptr noundef nonnull align 8 dereferenceable(1217) %0, i32 noundef %1, i32 noundef %2) #4 align 2 {
  %4 = alloca ptr, align 8
  %5 = alloca i32, align 4
  %6 = alloca i32, align 4
  %7 = alloca i32, align 4
  %8 = alloca i32, align 4
  store ptr %0, ptr %4, align 8, !tbaa !3
  store i32 %1, ptr %5, align 4, !tbaa !8
  store i32 %2, ptr %6, align 4, !tbaa !8
  %9 = load ptr, ptr %4, align 8
  call void @llvm.lifetime.start.p0(i64 4, ptr %7) #3
  %10 = load i32, ptr %5, align 4, !tbaa !8
  store i32 %10, ptr %7, align 4, !tbaa !8
  call void @llvm.lifetime.start.p0(i64 4, ptr %8) #3
  %11 = load i32, ptr %6, align 4, !tbaa !8
  store i32 %11, ptr %8, align 4, !tbaa !8
  %12 = getelementptr inbounds nuw %"class.cv::bioinspired::RetinaFilter", ptr %9, i32 0, i32 12
  %13 = load ptr, ptr %12, align 8, !tbaa !16
  %14 = icmp ne ptr %13, null
  br i1 %14, label %15, label %26

15:                                               ; preds = %3
  %16 = getelementptr inbounds nuw %"class.cv::bioinspired::RetinaFilter", ptr %9, i32 0, i32 12
  %17 = load ptr, ptr %16, align 8, !tbaa !16
  %18 = load i32, ptr %5, align 4, !tbaa !8
  %19 = load i32, ptr %6, align 4, !tbaa !8
  call void @_ZN2cv11bioinspired21ImageLogPolProjection6resizeEjj(ptr noundef nonnull align 8 dereferenceable(301) %17, i32 noundef %18, i32 noundef %19)
  %20 = getelementptr inbounds nuw %"class.cv::bioinspired::RetinaFilter", ptr %9, i32 0, i32 12
  %21 = load ptr, ptr %20, align 8, !tbaa !16
  %22 = call noundef i32 @_ZN2cv11bioinspired21ImageLogPolProjection15getOutputNBrowsEv(ptr noundef nonnull align 8 dereferenceable(301) %21)
  store i32 %22, ptr %7, align 4, !tbaa !8
  %23 = getelementptr inbounds nuw %"class.cv::bioinspired::RetinaFilter", ptr %9, i32 0, i32 12
  %24 = load ptr, ptr %23, align 8, !tbaa !16
  %25 = call noundef i32 @_ZN2cv11bioinspired21ImageLogPolProjection18getOutputNBcolumnsEv(ptr noundef nonnull align 8 dereferenceable(301) %24)
  store i32 %25, ptr %8, align 4, !tbaa !8
  br label %26

26:                                               ; preds = %15, %3
  %27 = getelementptr inbounds nuw %"class.cv::bioinspired::RetinaFilter", ptr %9, i32 0, i32 8
  %28 = load i32, ptr %7, align 4, !tbaa !8
  %29 = load i32, ptr %8, align 4, !tbaa !8
  call void @_ZN2cv11bioinspired17BasicRetinaFilter6resizeEjj(ptr noundef nonnull align 8 dereferenceable(168) %27, i32 noundef %28, i32 noundef %29)
  %30 = getelementptr inbounds nuw %"class.cv::bioinspired::RetinaFilter", ptr %9, i32 0, i32 9
  %31 = load i32, ptr %7, align 4, !tbaa !8
  %32 = load i32, ptr %8, align 4, !tbaa !8
  call void @_ZN2cv11bioinspired17ParvoRetinaFilter6resizeEjj(ptr noundef nonnull align 8 dereferenceable(304) %30, i32 noundef %31, i32 noundef %32)
  %33 = getelementptr inbounds nuw %"class.cv::bioinspired::RetinaFilter", ptr %9, i32 0, i32 10
  %34 = load i32, ptr %7, align 4, !tbaa !8
  %35 = load i32, ptr %8, align 4, !tbaa !8
  call void @_ZN2cv11bioinspired17MagnoRetinaFilter6resizeEjj(ptr noundef nonnull align 8 dereferenceable(324) %33, i32 noundef %34, i32 noundef %35)
  %36 = getelementptr inbounds nuw %"class.cv::bioinspired::RetinaFilter", ptr %9, i32 0, i32 11
  %37 = load i32, ptr %7, align 4, !tbaa !8
  %38 = load i32, ptr %8, align 4, !tbaa !8
  call void @_ZN2cv11bioinspired11RetinaColor6resizeEjj(ptr noundef nonnull align 8 dereferenceable(349) %36, i32 noundef %37, i32 noundef %38)
  call void @_ZN2cv11bioinspired12RetinaFilter18_createHybridTableEv(ptr noundef nonnull align 8 dereferenceable(1217) %9)
  call void @_ZN2cv11bioinspired12RetinaFilter15clearAllBuffersEv(ptr noundef nonnull align 8 dereferenceable(1217) %9)
  call void @llvm.lifetime.end.p0(i64 4, ptr %8) #3
  call void @llvm.lifetime.end.p0(i64 4, ptr %7) #3
  ret void
}