; Function Attrs: mustprogress uwtable
define hidden void @_ZN2cv11bioinspired12RetinaFilter6resizeEjj(ptr noundef nonnull align 8 dereferenceable(1217) %0, i32 noundef %1, i32 noundef %2) local_unnamed_addr #3 align 2 {
  %4 = getelementptr inbounds nuw i8, ptr %0, i64 1200
  %5 = load ptr, ptr %4, align 8, !tbaa !11
  %.not = icmp eq ptr %5, null
  br i1 %.not, label %12, label %6

6:                                                ; preds = %3
  tail call void @_ZN2cv11bioinspired21ImageLogPolProjection6resizeEjj(ptr noundef nonnull align 8 dereferenceable(301) %5, i32 noundef %1, i32 noundef %2)
  %7 = load ptr, ptr %4, align 8, !tbaa !11
  %8 = getelementptr inbounds nuw i8, ptr %7, i64 180
  %9 = load i32, ptr %8, align 4, !tbaa !81
  %10 = getelementptr inbounds nuw i8, ptr %7, i64 184
  %11 = load i32, ptr %10, align 8, !tbaa !85
  br label %12

12:                                               ; preds = %6, %3
  %.012 = phi i32 [ %9, %6 ], [ %1, %3 ]
  %.0 = phi i32 [ %11, %6 ], [ %2, %3 ]
  %13 = getelementptr inbounds nuw i8, ptr %0, i64 48
  tail call void @_ZN2cv11bioinspired17BasicRetinaFilter6resizeEjj(ptr noundef nonnull align 8 dereferenceable(168) %13, i32 noundef %.012, i32 noundef %.0)
  %14 = getelementptr inbounds nuw i8, ptr %0, i64 216
  tail call void @_ZN2cv11bioinspired17ParvoRetinaFilter6resizeEjj(ptr noundef nonnull align 8 dereferenceable(304) %14, i32 noundef %.012, i32 noundef %.0)
  %15 = getelementptr inbounds nuw i8, ptr %0, i64 520
  tail call void @_ZN2cv11bioinspired17MagnoRetinaFilter6resizeEjj(ptr noundef nonnull align 8 dereferenceable(324) %15, i32 noundef %.012, i32 noundef %.0)
  %16 = getelementptr inbounds nuw i8, ptr %0, i64 848
  tail call void @_ZN2cv11bioinspired11RetinaColor6resizeEjj(ptr noundef nonnull align 8 dereferenceable(349) %16, i32 noundef %.012, i32 noundef %.0)
  tail call void @_ZN2cv11bioinspired12RetinaFilter18_createHybridTableEv(ptr noundef nonnull align 8 dereferenceable(1217) %0)
  %17 = getelementptr inbounds nuw i8, ptr %0, i64 56
  %18 = load i64, ptr %17, align 8, !tbaa !3
  %.not3.i.i.i.i.i.i = icmp eq i64 %18, 0
  br i1 %.not3.i.i.i.i.i.i, label %_ZN2cv11bioinspired17BasicRetinaFilter17clearOutputBufferEv.exit.i.i, label %.lr.ph.i.i.i.preheader.i.i.i

.lr.ph.i.i.i.preheader.i.i.i:                     ; preds = %12
  %19 = getelementptr inbounds nuw i8, ptr %0, i64 64
  %20 = load ptr, ptr %19, align 8, !tbaa !10
  %21 = shl nuw i64 %18, 2
  tail call void @llvm.memset.p0.i64(ptr align 4 %20, i8 0, i64 %21, i1 false), !tbaa !61, !alias.scope !86
  br label %_ZN2cv11bioinspired17BasicRetinaFilter17clearOutputBufferEv.exit.i.i

_ZN2cv11bioinspired17BasicRetinaFilter17clearOutputBufferEv.exit.i.i: ; preds = %.lr.ph.i.i.i.preheader.i.i.i, %12
  %22 = getelementptr inbounds nuw i8, ptr %0, i64 112
  %23 = load i64, ptr %22, align 8, !tbaa !3
  %.not3.i.i.i.i.i = icmp eq i64 %23, 0
  br i1 %.not3.i.i.i.i.i, label %_ZN2cv11bioinspired17BasicRetinaFilter15clearAllBuffersEv.exit.i, label %.lr.ph.i.i.preheader.i.i.i

.lr.ph.i.i.preheader.i.i.i:                       ; preds = %_ZN2cv11bioinspired17BasicRetinaFilter17clearOutputBufferEv.exit.i.i
  %24 = getelementptr inbounds nuw i8, ptr %0, i64 120
  %25 = load ptr, ptr %24, align 8, !tbaa !10
  %26 = shl nuw i64 %23, 2
  tail call void @llvm.memset.p0.i64(ptr align 4 %25, i8 0, i64 %26, i1 false), !tbaa !61, !alias.scope !89
  br label %_ZN2cv11bioinspired17BasicRetinaFilter15clearAllBuffersEv.exit.i

_ZN2cv11bioinspired17BasicRetinaFilter15clearAllBuffersEv.exit.i: ; preds = %.lr.ph.i.i.preheader.i.i.i, %_ZN2cv11bioinspired17BasicRetinaFilter17clearOutputBufferEv.exit.i.i
  tail call void @_ZN2cv11bioinspired17ParvoRetinaFilter15clearAllBuffersEv(ptr noundef nonnull align 8 dereferenceable(304) %14)
  tail call void @_ZN2cv11bioinspired17MagnoRetinaFilter15clearAllBuffersEv(ptr noundef nonnull align 8 dereferenceable(324) %15)
  tail call void @_ZN2cv11bioinspired11RetinaColor15clearAllBuffersEv(ptr noundef nonnull align 8 dereferenceable(349) %16)
  %27 = load ptr, ptr %4, align 8, !tbaa !11
  %.not.i = icmp eq ptr %27, null
  br i1 %.not.i, label %_ZN2cv11bioinspired12RetinaFilter15clearAllBuffersEv.exit, label %28

28:                                               ; preds = %_ZN2cv11bioinspired17BasicRetinaFilter15clearAllBuffersEv.exit.i
  tail call void @_ZN2cv11bioinspired21ImageLogPolProjection15clearAllBuffersEv(ptr noundef nonnull align 8 dereferenceable(301) %27)
  br label %_ZN2cv11bioinspired12RetinaFilter15clearAllBuffersEv.exit

_ZN2cv11bioinspired12RetinaFilter15clearAllBuffersEv.exit: ; preds = %_ZN2cv11bioinspired17BasicRetinaFilter15clearAllBuffersEv.exit.i, %28
  %29 = getelementptr inbounds nuw i8, ptr %0, i64 320
  %30 = load ptr, ptr %29, align 8, !tbaa !10
  %31 = getelementptr inbounds nuw i8, ptr %30, i64 8
  %32 = load float, ptr %31, align 4, !tbaa !61
  %33 = getelementptr inbounds nuw i8, ptr %30, i64 20
  %34 = load float, ptr %33, align 4, !tbaa !61
  %35 = fadd float %32, %34
  %36 = getelementptr inbounds nuw i8, ptr %0, i64 624
  %37 = load ptr, ptr %36, align 8, !tbaa !10
  %38 = getelementptr inbounds nuw i8, ptr %37, i64 8
  %39 = load float, ptr %38, align 4, !tbaa !61
  %40 = fadd float %35, %39
  %41 = fptoui float %40 to i32
  %42 = getelementptr inbounds nuw i8, ptr %0, i64 8
  store i32 %41, ptr %42, align 8, !tbaa !60
  %43 = getelementptr inbounds nuw i8, ptr %0, i64 4
  store i32 0, ptr %43, align 4, !tbaa !59
  ret void
}